; Function Attrs: mustprogress uwtable
define void @_ZN2cv4gapi9dilate3x3ERKNS_4GMatEiiRKNS_7Scalar_IdEE(ptr dead_on_unwind noalias writable sret(%"class.cv::GMat") align 8 %0, ptr nocapture noundef nonnull readonly align 8 dereferenceable(16) %1, i32 noundef %2, i32 noundef %3, ptr nocapture noundef nonnull readonly align 8 dereferenceable(32) %4) local_unnamed_addr #3 personality ptr @__gxx_personality_v0 {
  %6 = alloca %"class.cv::Mat", align 8
  %7 = alloca %"class.cv::Point_", align 4
  call void @_ZN2cv3MatC1Ev(ptr noundef nonnull align 8 dereferenceable(96) %6) #18
  store i32 -1, ptr %7, align 4
  %8 = getelementptr inbounds i8, ptr %7, i64 4
  store i32 -1, ptr %8, align 4
  invoke void @_ZN2cv4gapi6dilateERKNS_4GMatERKNS_3MatERKNS_6Point_IiEEiiRKNS_7Scalar_IdEE(ptr dead_on_unwind writable sret(%"class.cv::GMat") align 8 %0, ptr noundef nonnull align 8 dereferenceable(16) %1, ptr noundef nonnull align 8 dereferenceable(96) %6, ptr noundef nonnull align 4 dereferenceable(8) %7, i32 noundef %2, i32 noundef %3, ptr noundef nonnull align 8 dereferenceable(32) %4)
          to label %9 unwind label %10

9:                                                ; preds = %5
  call void @_ZN2cv3MatD1Ev(ptr noundef nonnull align 8 dereferenceable(96) %6) #18
  ret void

10:                                               ; preds = %5
  %11 = landingpad { ptr, i32 }
          cleanup
  call void @_ZN2cv3MatD1Ev(ptr noundef nonnull align 8 dereferenceable(96) %6) #18
  resume { ptr, i32 } %11
}